; Function Attrs: nofree nounwind memory(readwrite, inaccessiblemem: write) uwtable
define double @N_VWL2Norm_Serial(ptr noundef readonly captures(none) %0, ptr noundef readonly captures(none) %1) #9 {
  %3 = load ptr, ptr %0, align 8, !tbaa !54
  %4 = load i64, ptr %3, align 8, !tbaa !55
  %5 = getelementptr inbounds nuw i8, ptr %3, i64 16
  %6 = load ptr, ptr %5, align 8, !tbaa !61
  %7 = load ptr, ptr %1, align 8, !tbaa !54
  %8 = getelementptr inbounds nuw i8, ptr %7, i64 16
  %9 = load ptr, ptr %8, align 8, !tbaa !61
  %10 = icmp sgt i64 %4, 0
  br i1 %10, label %.lr.ph, label %._crit_edge.thread

.lr.ph:                                           ; preds = %2, %.lr.ph
  %.016 = phi i64 [ %17, %.lr.ph ], [ 0, %2 ]
  %.01415 = phi double [ %16, %.lr.ph ], [ 0.000000e+00, %2 ]
  %11 = getelementptr inbounds nuw double, ptr %6, i64 %.016
  %12 = load double, ptr %11, align 8, !tbaa !64
  %13 = getelementptr inbounds nuw double, ptr %9, i64 %.016
  %14 = load double, ptr %13, align 8, !tbaa !64
  %15 = fmul double %12, %14
  %16 = tail call double @llvm.fmuladd.f64(double %15, double %15, double %.01415)
  %17 = add nuw nsw i64 %.016, 1
  %exitcond.not = icmp eq i64 %17, %4
  br i1 %exitcond.not, label %._crit_edge, label %.lr.ph

._crit_edge:                                      ; preds = %.lr.ph
  %18 = fcmp ugt double %16, 0.000000e+00
  br i1 %18, label %19, label %._crit_edge.thread

19:                                               ; preds = %._crit_edge
  %20 = tail call double @sqrt(double noundef %16) #20, !tbaa !66
  br label %._crit_edge.thread

._crit_edge.thread:                               ; preds = %2, %._crit_edge, %19
  %21 = phi double [ %20, %19 ], [ 0.000000e+00, %._crit_edge ], [ 0.000000e+00, %2 ]
  ret double %21
}